; Function Attrs: alwaysinline norecurse nounwind uwtable
define internal void @_ZNK8LightGBM16RegressionMetricINS_13TweedieMetricEE4EvalEPKdPKNS_17ObjectiveFunctionE.omp_outlined(ptr noalias noundef readonly captures(none) %0, ptr noalias readnone captures(none) %1, ptr noundef readonly captures(none) %2, ptr noundef nonnull align 8 captures(none) dereferenceable(8) %3, ptr noundef nonnull readonly align 8 captures(none) dereferenceable(8) %4) #15 personality ptr @__gxx_personality_v0 {
  %6 = alloca i32, align 4
  %7 = alloca i32, align 4
  %8 = alloca i32, align 4
  %9 = alloca i32, align 4
  %10 = alloca double, align 8
  %11 = alloca [1 x ptr], align 8
  %12 = getelementptr inbounds nuw i8, ptr %2, i64 8
  %13 = load i32, ptr %12, align 8, !tbaa !580
  %14 = icmp sgt i32 %13, 0
  br i1 %14, label %15, label %59

15:                                               ; preds = %5
  %16 = add nsw i32 %13, -1
  call void @llvm.lifetime.start.p0(i64 4, ptr nonnull %6) #16
  store i32 0, ptr %6, align 4, !tbaa !127
  call void @llvm.lifetime.start.p0(i64 4, ptr nonnull %7) #16
  store i32 %16, ptr %7, align 4, !tbaa !127
  call void @llvm.lifetime.start.p0(i64 4, ptr nonnull %8) #16
  store i32 1, ptr %8, align 4, !tbaa !127
  call void @llvm.lifetime.start.p0(i64 4, ptr nonnull %9) #16
  store i32 0, ptr %9, align 4, !tbaa !127
  call void @llvm.lifetime.start.p0(i64 8, ptr nonnull %10) #16
  store double 0.000000e+00, ptr %10, align 8, !tbaa !84
  %17 = load i32, ptr %0, align 4, !tbaa !127
  call void @__kmpc_for_static_init_4(ptr nonnull @1, i32 %17, i32 34, ptr nonnull %9, ptr nonnull %6, ptr nonnull %7, ptr nonnull %8, i32 1, i32 1)
  %18 = load i32, ptr %7, align 4, !tbaa !127
  %19 = call i32 @llvm.smin.i32(i32 %18, i32 %16)
  store i32 %19, ptr %7, align 4, !tbaa !127
  %20 = load i32, ptr %6, align 4, !tbaa !127
  %.not15 = icmp sgt i32 %20, %19
  br i1 %.not15, label %._crit_edge, label %.lr.ph

.lr.ph:                                           ; preds = %15
  %21 = getelementptr inbounds nuw i8, ptr %2, i64 16
  %22 = load ptr, ptr %21, align 8, !tbaa !582
  %23 = load ptr, ptr %4, align 8, !tbaa !81
  %24 = getelementptr inbounds nuw i8, ptr %2, i64 1368
  %25 = load double, ptr %24, align 8, !tbaa !586
  %26 = fsub double 1.000000e+00, %25
  %27 = fsub double 2.000000e+00, %25
  %28 = sext i32 %20 to i64
  br label %29

29:                                               ; preds = %.lr.ph, %29
  %indvars.iv = phi i64 [ %28, %.lr.ph ], [ %indvars.iv.next, %29 ]
  %30 = phi double [ 0.000000e+00, %.lr.ph ], [ %47, %29 ]
  %31 = getelementptr inbounds float, ptr %22, i64 %indvars.iv
  %32 = load float, ptr %31, align 4, !tbaa !78
  %33 = getelementptr inbounds double, ptr %23, i64 %indvars.iv
  %34 = load double, ptr %33, align 8, !tbaa !84
  %35 = fcmp olt double %34, 0x3DDB7CDFE0000000
  %.0.i = select i1 %35, double 0x3DDB7CDFE0000000, double %34
  %36 = fpext float %32 to double
  %37 = call double @llvm.log.f64(double %.0.i), !tbaa !127
  %38 = fmul double %26, %37
  %39 = call double @exp(double noundef %38) #16, !tbaa !127
  %40 = fmul double %27, %37
  %41 = call double @exp(double noundef %40) #16, !tbaa !127
  %42 = fdiv double %41, %27
  %43 = fneg double %36
  %44 = fmul double %39, %43
  %45 = fdiv double %44, %26
  %46 = fadd double %45, %42
  %47 = fadd double %30, %46
  store double %47, ptr %10, align 8, !tbaa !84
  %indvars.iv.next = add nsw i64 %indvars.iv, 1
  %48 = load i32, ptr %7, align 4, !tbaa !127
  %49 = sext i32 %48 to i64
  %.not.not = icmp slt i64 %indvars.iv, %49
  br i1 %.not.not, label %29, label %._crit_edge

._crit_edge:                                      ; preds = %29, %15
  call void @__kmpc_for_static_fini(ptr nonnull @1, i32 %17)
  store ptr %10, ptr %11, align 8
  %50 = call i32 @__kmpc_reduce_nowait(ptr nonnull @2, i32 %17, i32 1, i64 8, ptr nonnull %11, ptr nonnull @_ZNK8LightGBM16RegressionMetricINS_13TweedieMetricEE4EvalEPKdPKNS_17ObjectiveFunctionE.omp_outlined.omp.reduction.reduction_func, ptr nonnull @.gomp_critical_user_.reduction.var)
  switch i32 %50, label %58 [
    i32 1, label %51
    i32 2, label %55
  ]

51:                                               ; preds = %._crit_edge
  %52 = load double, ptr %3, align 8, !tbaa !84
  %53 = load double, ptr %10, align 8, !tbaa !84
  %54 = fadd double %52, %53
  store double %54, ptr %3, align 8, !tbaa !84
  call void @__kmpc_end_reduce_nowait(ptr nonnull @2, i32 %17, ptr nonnull @.gomp_critical_user_.reduction.var)
  br label %58

55:                                               ; preds = %._crit_edge
  %56 = load double, ptr %10, align 8, !tbaa !84
  %57 = atomicrmw fadd ptr %3, double %56 monotonic, align 8
  br label %58

58:                                               ; preds = %55, %51, %._crit_edge
  call void @llvm.lifetime.end.p0(i64 8, ptr nonnull %10) #16
  call void @llvm.lifetime.end.p0(i64 4, ptr nonnull %9) #16
  call void @llvm.lifetime.end.p0(i64 4, ptr nonnull %8) #16
  call void @llvm.lifetime.end.p0(i64 4, ptr nonnull %7) #16
  call void @llvm.lifetime.end.p0(i64 4, ptr nonnull %6) #16
  br label %59

59:                                               ; preds = %58, %5
  ret void
}